target datalayout = "e-m:e-p270:32:32-p271:32:32-p272:64:64-i64:64-i128:128-f80:128-n8:16:32:64-S128"
target triple = "x86_64-pc-linux-gnu"

%struct.SurfaceDataRasInfo = type { %struct.SurfaceDataBounds, ptr, i32, i32, i32, i32, ptr, ptr, ptr, ptr, ptr, ptr, i32, %union.anon.0 }
%struct.SurfaceDataBounds = type { i32, i32, i32, i32 }
%union.anon.0 = type { ptr, [56 x i8] }

; Function Attrs: nounwind uwtable
define hidden void @IntArgbToByteGrayScaleConvert(ptr noundef %0, ptr noundef %1, i32 noundef %2, i32 noundef %3, i32 noundef %4, i32 noundef %5, i32 noundef %6, i32 noundef %7, i32 noundef %8, ptr noundef %9, ptr noundef %10, ptr noundef %11, ptr noundef %12) #1 {
  %14 = alloca ptr, align 8
  %15 = alloca ptr, align 8
  %16 = alloca i32, align 4
  %17 = alloca i32, align 4
  %18 = alloca i32, align 4
  %19 = alloca i32, align 4
  %20 = alloca i32, align 4
  %21 = alloca i32, align 4
  %22 = alloca i32, align 4
  %23 = alloca ptr, align 8
  %24 = alloca ptr, align 8
  %25 = alloca ptr, align 8
  %26 = alloca ptr, align 8
  %27 = alloca ptr, align 8
  %28 = alloca ptr, align 8
  %29 = alloca i32, align 4
  %30 = alloca i32, align 4
  %31 = alloca i32, align 4
  %32 = alloca i32, align 4
  %33 = alloca i32, align 4
  %34 = alloca i32, align 4
  %35 = alloca i32, align 4
  %36 = alloca i32, align 4
  %37 = alloca i32, align 4
  store ptr %0, ptr %14, align 8
  store ptr %1, ptr %15, align 8
  store i32 %2, ptr %16, align 4
  store i32 %3, ptr %17, align 4
  store i32 %4, ptr %18, align 4
  store i32 %5, ptr %19, align 4
  store i32 %6, ptr %20, align 4
  store i32 %7, ptr %21, align 4
  store i32 %8, ptr %22, align 4
  store ptr %9, ptr %23, align 8
  store ptr %10, ptr %24, align 8
  store ptr %11, ptr %25, align 8
  store ptr %12, ptr %26, align 8
  br label %38

38:                                               ; preds = %13
  %39 = load ptr, ptr %15, align 8
  store ptr %39, ptr %28, align 8
  %40 = load ptr, ptr %23, align 8
  %41 = getelementptr inbounds %struct.SurfaceDataRasInfo, ptr %40, i32 0, i32 4
  %42 = load i32, ptr %41, align 8
  store i32 %42, ptr %29, align 4
  %43 = load ptr, ptr %24, align 8
  %44 = getelementptr inbounds %struct.SurfaceDataRasInfo, ptr %43, i32 0, i32 4
  %45 = load i32, ptr %44, align 8
  store i32 %45, ptr %30, align 4
  %46 = load i32, ptr %16, align 4
  %47 = mul i32 %46, 1
  %48 = load i32, ptr %30, align 4
  %49 = sub i32 %48, %47
  store i32 %49, ptr %30, align 4
  br label %50

50:                                               ; preds = %121, %38
  %51 = load i32, ptr %16, align 4
  store i32 %51, ptr %31, align 4
  %52 = load i32, ptr %18, align 4
  store i32 %52, ptr %32, align 4
  %53 = load ptr, ptr %14, align 8
  %54 = ptrtoint ptr %53 to i64
  %55 = load i32, ptr %19, align 4
  %56 = load i32, ptr %22, align 4
  %57 = ashr i32 %55, %56
  %58 = sext i32 %57 to i64
  %59 = load i32, ptr %29, align 4
  %60 = sext i32 %59 to i64
  %61 = mul nsw i64 %58, %60
  %62 = add nsw i64 %54, %61
  %63 = inttoptr i64 %62 to ptr
  store ptr %63, ptr %27, align 8
  br label %64

64:                                               ; preds = %107, %50
  %65 = load i32, ptr %32, align 4
  %66 = load i32, ptr %22, align 4
  %67 = ashr i32 %65, %66
  store i32 %67, ptr %33, align 4
  br label %68

68:                                               ; preds = %64
  br label %69

69:                                               ; preds = %68
  %70 = load ptr, ptr %27, align 8
  %71 = load i32, ptr %33, align 4
  %72 = sext i32 %71 to i64
  %73 = getelementptr inbounds i32, ptr %70, i64 %72
  %74 = load i32, ptr %73, align 4
  store i32 %74, ptr %37, align 4
  br label %75

75:                                               ; preds = %69
  %76 = load i32, ptr %37, align 4
  %77 = and i32 %76, 255
  store i32 %77, ptr %36, align 4
  %78 = load i32, ptr %37, align 4
  %79 = ashr i32 %78, 8
  %80 = and i32 %79, 255
  store i32 %80, ptr %35, align 4
  %81 = load i32, ptr %37, align 4
  %82 = ashr i32 %81, 16
  %83 = and i32 %82, 255
  store i32 %83, ptr %34, align 4
  br label %84

84:                                               ; preds = %75
  br label %85

85:                                               ; preds = %84
  %86 = load i32, ptr %34, align 4
  %87 = mul nsw i32 77, %86
  %88 = load i32, ptr %35, align 4
  %89 = mul nsw i32 150, %88
  %90 = add nsw i32 %87, %89
  %91 = load i32, ptr %36, align 4
  %92 = mul nsw i32 29, %91
  %93 = add nsw i32 %90, %92
  %94 = add nsw i32 %93, 128
  %95 = sdiv i32 %94, 256
  %96 = trunc i32 %95 to i8
  %97 = load ptr, ptr %28, align 8
  %98 = getelementptr inbounds i8, ptr %97, i64 0
  store i8 %96, ptr %98, align 1
  br label %99

99:                                               ; preds = %85
  %100 = load ptr, ptr %28, align 8
  %101 = ptrtoint ptr %100 to i64
  %102 = add nsw i64 %101, 1
  %103 = inttoptr i64 %102 to ptr
  store ptr %103, ptr %28, align 8
  %104 = load i32, ptr %20, align 4
  %105 = load i32, ptr %32, align 4
  %106 = add nsw i32 %105, %104
  store i32 %106, ptr %32, align 4
  br label %107

107:                                              ; preds = %99
  %108 = load i32, ptr %31, align 4
  %109 = add i32 %108, -1
  store i32 %109, ptr %31, align 4
  %110 = icmp ugt i32 %109, 0
  br i1 %110, label %64, label %111, !llvm.loop !25

111:                                              ; preds = %107
  %112 = load ptr, ptr %28, align 8
  %113 = ptrtoint ptr %112 to i64
  %114 = load i32, ptr %30, align 4
  %115 = sext i32 %114 to i64
  %116 = add nsw i64 %113, %115
  %117 = inttoptr i64 %116 to ptr
  store ptr %117, ptr %28, align 8
  %118 = load i32, ptr %21, align 4
  %119 = load i32, ptr %19, align 4
  %120 = add nsw i32 %119, %118
  store i32 %120, ptr %19, align 4
  br label %121

121:                                              ; preds = %111
  %122 = load i32, ptr %17, align 4
  %123 = add i32 %122, -1
  store i32 %123, ptr %17, align 4
  %124 = icmp ugt i32 %123, 0
  br i1 %124, label %50, label %125, !llvm.loop !26

125:                                              ; preds = %121
  br label %126

126:                                              ; preds = %125
  ret void
}