; Function Attrs: nofree norecurse nosync nounwind memory(readwrite, inaccessiblemem: none) uwtable
define hidden void @IntArgbToByteGrayScaleConvert(ptr noundef %0, ptr noundef %1, i32 noundef %2, i32 noundef %3, i32 noundef %4, i32 noundef %5, i32 noundef %6, i32 noundef %7, i32 noundef %8, ptr nocapture noundef readonly %9, ptr nocapture noundef readonly %10, ptr nocapture readnone %11, ptr nocapture readnone %12) #1 {
  %14 = getelementptr inbounds i8, ptr %9, i64 32
  %15 = load i32, ptr %14, align 8
  %16 = getelementptr inbounds i8, ptr %10, i64 32
  %17 = load i32, ptr %16, align 8
  %18 = sub i32 %17, %2
  %19 = sext i32 %18 to i64
  %20 = ptrtoint ptr %0 to i64
  %21 = sext i32 %15 to i64
  br label %22

22:                                               ; preds = %51, %13
  %.031 = phi ptr [ %1, %13 ], [ %53, %51 ]
  %.030 = phi i32 [ %5, %13 ], [ %54, %51 ]
  %.0 = phi i32 [ %3, %13 ], [ %55, %51 ]
  %23 = ashr i32 %.030, %8
  %24 = sext i32 %23 to i64
  %25 = mul nsw i64 %24, %21
  %26 = add nsw i64 %25, %20
  %27 = inttoptr i64 %26 to ptr
  br label %28

28:                                               ; preds = %28, %22
  %.033 = phi i32 [ %4, %22 ], [ %49, %28 ]
  %.032 = phi i32 [ %2, %22 ], [ %50, %28 ]
  %.1 = phi ptr [ %.031, %22 ], [ %48, %28 ]
  %29 = ashr i32 %.033, %8
  %30 = sext i32 %29 to i64
  %31 = getelementptr inbounds i32, ptr %27, i64 %30
  %32 = load i32, ptr %31, align 4
  %33 = and i32 %32, 255
  %34 = lshr i32 %32, 8
  %35 = and i32 %34, 255
  %36 = lshr i32 %32, 16
  %37 = and i32 %36, 255
  %38 = mul nuw nsw i32 %37, 77
  %39 = mul nuw nsw i32 %35, 150
  %40 = mul nuw nsw i32 %33, 29
  %41 = add nuw nsw i32 %40, 128
  %42 = add nuw nsw i32 %41, %39
  %43 = add nuw nsw i32 %42, %38
  %44 = lshr i32 %43, 8
  %45 = trunc nuw i32 %44 to i8
  store i8 %45, ptr %.1, align 1
  %46 = ptrtoint ptr %.1 to i64
  %47 = add nsw i64 %46, 1
  %48 = inttoptr i64 %47 to ptr
  %49 = add nsw i32 %.033, %6
  %50 = add i32 %.032, -1
  %.not = icmp eq i32 %50, 0
  br i1 %.not, label %51, label %28, !llvm.loop !24

51:                                               ; preds = %28
  %52 = add nsw i64 %47, %19
  %53 = inttoptr i64 %52 to ptr
  %54 = add nsw i32 %.030, %7
  %55 = add i32 %.0, -1
  %.not35 = icmp eq i32 %55, 0
  br i1 %.not35, label %56, label %22, !llvm.loop !25

56:                                               ; preds = %51
  ret void
}